; Function Attrs: mustprogress nounwind willreturn uwtable
define dso_local void @psqlscan_pop_buffer_stack(ptr noundef captures(none) %0) local_unnamed_addr #6 {
  %2 = getelementptr inbounds nuw i8, ptr %0, i64 16
  %3 = load ptr, ptr %2, align 8
  %4 = getelementptr inbounds nuw i8, ptr %3, i64 32
  %5 = load ptr, ptr %4, align 8
  store ptr %5, ptr %2, align 8
  %6 = load ptr, ptr %3, align 8
  %7 = load ptr, ptr %0, align 8
  %.not.i = icmp eq ptr %6, null
  br i1 %.not.i, label %psql_yy_delete_buffer.exit, label %8

8:                                                ; preds = %1
  %9 = getelementptr inbounds nuw i8, ptr %7, i64 40
  %10 = load ptr, ptr %9, align 8
  %.not14.i = icmp eq ptr %10, null
  br i1 %.not14.i, label %.thread.i, label %11

11:                                               ; preds = %8
  %12 = getelementptr inbounds nuw i8, ptr %7, i64 24
  %13 = load i64, ptr %12, align 8
  %14 = getelementptr inbounds nuw ptr, ptr %10, i64 %13
  %15 = load ptr, ptr %14, align 8
  %16 = icmp eq ptr %6, %15
  br i1 %16, label %17, label %.thread.i

17:                                               ; preds = %11
  store ptr null, ptr %14, align 8
  br label %.thread.i

.thread.i:                                        ; preds = %17, %11, %8
  %18 = getelementptr inbounds nuw i8, ptr %6, i64 32
  %19 = load i32, ptr %18, align 8
  %.not15.i = icmp eq i32 %19, 0
  br i1 %.not15.i, label %23, label %20

20:                                               ; preds = %.thread.i
  %21 = getelementptr inbounds nuw i8, ptr %6, i64 8
  %22 = load ptr, ptr %21, align 8
  tail call void @free(ptr noundef %22) #27
  br label %23

23:                                               ; preds = %20, %.thread.i
  tail call void @free(ptr noundef nonnull %6) #27
  br label %psql_yy_delete_buffer.exit

psql_yy_delete_buffer.exit:                       ; preds = %1, %23
  %24 = getelementptr inbounds nuw i8, ptr %3, i64 8
  %25 = load ptr, ptr %24, align 8
  tail call void @free(ptr noundef %25) #27
  %26 = getelementptr inbounds nuw i8, ptr %3, i64 16
  %27 = load ptr, ptr %26, align 8
  %.not = icmp eq ptr %27, null
  br i1 %.not, label %29, label %28

28:                                               ; preds = %psql_yy_delete_buffer.exit
  tail call void @free(ptr noundef nonnull %27) #27
  br label %29

29:                                               ; preds = %28, %psql_yy_delete_buffer.exit
  %30 = getelementptr inbounds nuw i8, ptr %3, i64 24
  %31 = load ptr, ptr %30, align 8
  %.not12 = icmp eq ptr %31, null
  br i1 %.not12, label %33, label %32

32:                                               ; preds = %29
  tail call void @free(ptr noundef nonnull %31) #27
  br label %33

33:                                               ; preds = %32, %29
  tail call void @free(ptr noundef nonnull %3) #27
  ret void
}